##############################################################################
#                                                                            #
# IAR ARM ANSI C/C++ Compiler V4.31A/W32 EVALUATION    07/Jan/2016  21:50:25 #
# Copyright 1999-2005 IAR Systems. All rights reserved.                      #
#                                                                            #
#    Cpu mode        =  interwork                                            #
#    Endian          =  little                                               #
#    Stack alignment =  4                                                    #
#    Source file     =  H:\สตั้สานคื๗2015-8-20\2014-10-1สตั้สา\2015-6-27ห๘ฮฒ #
#                       \ะกึฑษป๚ด๚ย๋ฒโสิ1-6\ะกึฑษป๚ด๚ย๋ฒโสิ\ยทพถนๆปฎ+LQR_2 #
#                       014_7_31\timer\timer.c                               #
#    Command line    =  H:\สตั้สานคื๗2015-8-20\2014-10-1สตั้สา\2015-6-27ห๘ฮฒ #
#                       \ะกึฑษป๚ด๚ย๋ฒโสิ1-6\ะกึฑษป๚ด๚ย๋ฒโสิ\ยทพถนๆปฎ+LQR_2 #
#                       014_7_31\timer\timer.c -lC                           #
#                       H:\สตั้สานคื๗2015-8-20\2014-10-1สตั้สา\2015-6-27ห๘ฮฒ #
#                       \ะกึฑษป๚ด๚ย๋ฒโสิ1-6\ะกึฑษป๚ด๚ย๋ฒโสิ\ยทพถนๆปฎ+LQR_2 #
#                       014_7_31\AT91SAM7SE-USART_USB\Compil\FLASH_Debug\Lis #
#                       t\ -o H:\สตั้สานคื๗2015-8-20\2014-10-1สตั้สา\2015-6- #
#                       27ห๘ฮฒ\ะกึฑษป๚ด๚ย๋ฒโสิ1-6\ะกึฑษป๚ด๚ย๋ฒโสิ\ยทพถนๆปฎ #
#                       +LQR_2014_7_31\AT91SAM7SE-USART_USB\Compil\FLASH_Deb #
#                       ug\Obj\ -z9 --debug --cpu_mode thumb --endian        #
#                       little --cpu ARM7TDMI --stack_align 4 --interwork    #
#                       -e --fpu None --ec++ --dlib_config                   #
#                       D:\IAREWE431\ARM\LIB\dl4tptinl8n.h -I                #
#                       H:\สตั้สานคื๗2015-8-20\2014-10-1สตั้สา\2015-6-27ห๘ฮฒ #
#                       \ะกึฑษป๚ด๚ย๋ฒโสิ1-6\ะกึฑษป๚ด๚ย๋ฒโสิ\ยทพถนๆปฎ+LQR_2 #
#                       014_7_31\AT91SAM7SE-USART_USB\Compil\srcIAR\ -I      #
#                       H:\สตั้สานคื๗2015-8-20\2014-10-1สตั้สา\2015-6-27ห๘ฮฒ #
#                       \ะกึฑษป๚ด๚ย๋ฒโสิ1-6\ะกึฑษป๚ด๚ย๋ฒโสิ\ยทพถนๆปฎ+LQR_2 #
#                       014_7_31\AT91SAM7SE-USART_USB\Compil\..\src\ -I      #
#                       H:\สตั้สานคื๗2015-8-20\2014-10-1สตั้สา\2015-6-27ห๘ฮฒ #
#                       \ะกึฑษป๚ด๚ย๋ฒโสิ1-6\ะกึฑษป๚ด๚ย๋ฒโสิ\ยทพถนๆปฎ+LQR_2 #
#                       014_7_31\AT91SAM7SE-USART_USB\Compil\..\..\ -I       #
#                       H:\สตั้สานคื๗2015-8-20\2014-10-1สตั้สา\2015-6-27ห๘ฮฒ #
#                       \ะกึฑษป๚ด๚ย๋ฒโสิ1-6\ะกึฑษป๚ด๚ย๋ฒโสิ\ยทพถนๆปฎ+LQR_2 #
#                       014_7_31\AT91SAM7SE-USART_USB\Compil\..\..\kalman\   #
#                       -I H:\สตั้สานคื๗2015-8-20\2014-10-1สตั้สา\2015-6-27ห #
#                       ๘ฮฒ\ะกึฑษป๚ด๚ย๋ฒโสิ1-6\ะกึฑษป๚ด๚ย๋ฒโสิ\ยทพถนๆปฎ+LQ #
#                       R_2014_7_31\AT91SAM7SE-USART_USB\Compil\..\..\pcm\   #
#                       -I H:\สตั้สานคื๗2015-8-20\2014-10-1สตั้สา\2015-6-27ห #
#                       ๘ฮฒ\ะกึฑษป๚ด๚ย๋ฒโสิ1-6\ะกึฑษป๚ด๚ย๋ฒโสิ\ยทพถนๆปฎ+LQ #
#                       R_2014_7_31\AT91SAM7SE-USART_USB\Compil\..\..\spi\   #
#                       -I H:\สตั้สานคื๗2015-8-20\2014-10-1สตั้สา\2015-6-27ห #
#                       ๘ฮฒ\ะกึฑษป๚ด๚ย๋ฒโสิ1-6\ะกึฑษป๚ด๚ย๋ฒโสิ\ยทพถนๆปฎ+LQ #
#                       R_2014_7_31\AT91SAM7SE-USART_USB\Compil\..\..\timer\ #
#                        -I H:\สตั้สานคื๗2015-8-20\2014-10-1สตั้สา\2015-6-27 #
#                       ห๘ฮฒ\ะกึฑษป๚ด๚ย๋ฒโสิ1-6\ะกึฑษป๚ด๚ย๋ฒโสิ\ยทพถนๆปฎ+L #
#                       QR_2014_7_31\AT91SAM7SE-USART_USB\Compil\..\..\pid\  #
#                       -I H:\สตั้สานคื๗2015-8-20\2014-10-1สตั้สา\2015-6-27ห #
#                       ๘ฮฒ\ะกึฑษป๚ด๚ย๋ฒโสิ1-6\ะกึฑษป๚ด๚ย๋ฒโสิ\ยทพถนๆปฎ+LQ #
#                       R_2014_7_31\AT91SAM7SE-USART_USB\Compil\..\..\avcs\  #
#                       -I D:\IAREWE431\ARM\INC\                             #
#    List file       =  H:\สตั้สานคื๗2015-8-20\2014-10-1สตั้สา\2015-6-27ห๘ฮฒ #
#                       \ะกึฑษป๚ด๚ย๋ฒโสิ1-6\ะกึฑษป๚ด๚ย๋ฒโสิ\ยทพถนๆปฎ+LQR_2 #
#                       014_7_31\AT91SAM7SE-USART_USB\Compil\FLASH_Debug\Lis #
#                       t\timer.lst                                          #
#    Object file     =  H:\สตั้สานคื๗2015-8-20\2014-10-1สตั้สา\2015-6-27ห๘ฮฒ #
#                       \ะกึฑษป๚ด๚ย๋ฒโสิ1-6\ะกึฑษป๚ด๚ย๋ฒโสิ\ยทพถนๆปฎ+LQR_2 #
#                       014_7_31\AT91SAM7SE-USART_USB\Compil\FLASH_Debug\Obj #
#                       \timer.r79                                           #
#                                                                            #
#                                                                            #
##############################################################################

H:\สตั้สานคื๗2015-8-20\2014-10-1สตั้สา\2015-6-27ห๘ฮฒ\ะกึฑษป๚ด๚ย๋ฒโสิ1-6\ะกึฑษป๚ด๚ย๋ฒโสิ\ยทพถนๆปฎ+LQR_2014_7_31\timer\timer.c
      1          #include  <includs.h>

   \                                 In segment CODE, align 4, keep-with-next
   \   __??Code16?? __code __interwork __atpcs unsigned int AT91F_AIC_ConfigureIt(AT91PS_AIC, unsigned int, unsigned int, unsigned int, void (*)())
   \                     ??AT91F_AIC_ConfigureIt:
   \   00000000   F4B4               PUSH        {R2,R4-R7}
   \   00000002   021C               MOV         R2,R0
   \   00000004   0C1C               MOV         R4,R1
   \   00000006   059E               LDR         R6,[SP, #+20]
   \   00000008   8900               LSL         R1,R1,#+2
   \   0000000A   4718               ADD         R7,R0,R1
   \   0000000C   8037               ADD         R7,#+128
   \   0000000E   3868               LDR         R0,[R7, #+0]
   \   00000010   0125               MOV         R5,#+1
   \   00000012   A540               LSL         R5,R4
   \   00000014   2C1C               MOV         R4,R5
   \   00000016   9225               MOV         R5,#+146
   \   00000018   6D00               LSL         R5,R5,#+1          ;; #+292
   \   0000001A   5519               ADD         R5,R2,R5
   \   0000001C   2C60               STR         R4,[R5, #+0]
   \   0000001E   3E60               STR         R6,[R7, #+0]
   \   00000020   009E               LDR         R6,[SP, #+0]
   \   00000022   1E43               ORR         R6,R3
   \   00000024   5650               STR         R6,[R2, R1]
   \   00000026   6C60               STR         R4,[R5, #+4]
   \   00000028   F8BC               POP         {R3-R7}
   \   0000002A   7047               BX          LR                 ;; return
      2          

   \                                 In segment DATA_Z, align 1, align-sorted
      3          char READY_30HZ=0;
   \                     READY_30HZ:
   \   00000000                      DS8 1

   \                                 In segment DATA_Z, align 1, align-sorted
      4          char DMP_GPS=0;
   \                     DMP_GPS:
   \   00000000                      DS8 1

   \                                 In segment DATA_I, align 1, align-sorted
      5          char servo_num=0;
   \                     servo_num:
   \   00000000                      DS8 1
   \   00000001                      REQUIRE `?<Initializer for servo_num>`
   \   00000001                      DS8 1
   \   00000002                      REQUIRE `?<Initializer for cd_update>`
      6          static bool cd_update = true;
      7          
      8          
      9          /*************************************************************************************/
     10          

   \                                 In segment CODE, align 4, keep-with-next
     11          void timer1_c_irq_handler(void)
     12          {
     13            int dummy;
     14            dummy =AT91C_BASE_TC1->TC_SR;
   \                     ??timer1_c_irq_handler:
   \   00000000   0548               LDR         R0,??timer1_c_irq_handler_1  ;; 0xfffa0060
   \   00000002   0068               LDR         R0,[R0, #+0]
     15            dummy =dummy;
     16          
     17          	
     18                    AT91C_BASE_TC1->TC_RA = AT91C_BASE_TC1->TC_CV+62400;//30ms
   \   00000004   0548               LDR         R0,??timer1_c_irq_handler_1+0x4  ;; 0xfffa0054
   \   00000006   0649               LDR         R1,??timer1_c_irq_handler_1+0x8  ;; 0xfffa0050
   \   00000008   0968               LDR         R1,[R1, #+0]
   \   0000000A   064A               LDR         R2,??timer1_c_irq_handler_1+0xC  ;; 0xf3c0
   \   0000000C   8918               ADD         R1,R1,R2
   \   0000000E   0160               STR         R1,[R0, #+0]
     19                    READY_30HZ=1;
   \   00000010   0548               LDR         R0,??timer1_c_irq_handler_1+0x10  ;; READY_30HZ
   \   00000012   0121               MOV         R1,#+1
   \   00000014   0170               STRB        R1,[R0, #+0]
     20                  
     21                 // AT91F_TC_InterruptDisable(AT91C_BASE_TC1,AT91C_TC_CPAS);
     22                     //READY_30HZ=1;
     23                 
     24            //AT91F_TC_InterruptDisable(AT91C_BASE_TC0,AT91C_TC_LDRAS);
     25            // AT91F_US_Put("scut\r\n");
     26          }
   \   00000016   7047               BX          LR                 ;; return
   \                     ??timer1_c_irq_handler_1:
   \   00000018   6000FAFF           DC32        0xfffa0060
   \   0000001C   5400FAFF           DC32        0xfffa0054
   \   00000020   5000FAFF           DC32        0xfffa0050
   \   00000024   C0F30000           DC32        0xf3c0
   \   00000028   ........           DC32        READY_30HZ
     27          
     28          
     29          
     30           /*************************************************************************************/
     31          /*
     32          void timer2_c_irq_handler(void)
     33          {
     34            int dummy;
     35            //int temp;
     36            CDCLKSET;
     37            dummy =AT91C_BASE_TC2->TC_SR;
     38            dummy =dummy;
     39            AT91C_BASE_TC2->TC_RA = AT91C_BASE_TC2->TC_CV +servo_widths[ servo_num ];
     40            servo_num++;
     41            servo_num=servo_num%10;
     42            CDCLKRESET; 
     43            //AT91F_TC_InterruptDisable(AT91C_BASE_TC0,AT91C_TC_LDRAS); 
     44          }*/

   \                                 In segment CODE, align 4, keep-with-next
     45          void timer2_c_irq_handler(void)//4017รฟธ๖ึฦฺถผธดฮป
     46          {
   \                     ??timer2_c_irq_handler:
   \   00000000   F0B5               PUSH        {R4-R7,LR}
     47            int dummy;
     48            //int temp;
     49            dummy =AT91C_BASE_TC2->TC_SR;
   \   00000002   1748               LDR         R0,??timer2_c_irq_handler_1  ;; 0xfffa00a0
   \   00000004   0068               LDR         R0,[R0, #+0]
     50            dummy =dummy;
     51            
     52            if(cd_update == false)
   \   00000006   174A               LDR         R2,??timer2_c_irq_handler_1+0x4  ;; servo_num
   \   00000008   1078               LDRB        R0,[R2, #+0]
   \   0000000A   ....               LDR         R1,??DataTable3    ;; 0xfffa0094
   \   0000000C   164D               LDR         R5,??timer2_c_irq_handler_1+0x8  ;; 0xfffa0090
   \   0000000E   174E               LDR         R6,??timer2_c_irq_handler_1+0xC  ;; 0xfffff430
   \   00000010   0223               MOV         R3,#+2
   \   00000012   5478               LDRB        R4,[R2, #+1]
   \   00000014   002C               CMP         R4,#+0
   \   00000016   07D1               BNE         ??timer2_c_irq_handler_2
     53            {
     54              CDCLKSET;
   \   00000018   3360               STR         R3,[R6, #+0]
     55              AT91C_BASE_TC2->TC_RA = AT91C_BASE_TC2->TC_CV +100;
   \   0000001A   2B68               LDR         R3,[R5, #+0]
   \   0000001C   6433               ADD         R3,#+100
   \   0000001E   0B60               STR         R3,[R1, #+0]
     56              cd_update = true;
   \   00000020   0121               MOV         R1,#+1
   \   00000022   5170               STRB        R1,[R2, #+1]
     57              CDSET;
   \   00000024   3160               STR         R1,[R6, #+0]
   \   00000026   16E0               B           ??timer2_c_irq_handler_3
     58            }
     59            else
     60            {
     61              if(servo_num == 0)
   \                     ??timer2_c_irq_handler_2:
   \   00000028   ....               LDR         R4,??DataTable2    ;; 0xfffff434
   \   0000002A   0028               CMP         R0,#+0
   \   0000002C   01D1               BNE         ??timer2_c_irq_handler_4
     62              {
     63                CDREST;
   \   0000002E   0127               MOV         R7,#+1
   \   00000030   2760               STR         R7,[R4, #+0]
     64              }
     65              CDCLKSET;
   \                     ??timer2_c_irq_handler_4:
   \   00000032   3360               STR         R3,[R6, #+0]
     66          
     67              // AT91C_BASE_TC2->TC_RA =AT91C_BASE_TC2->TC_CV +500000;
     68              /*while(1)
     69              {
     70                  temp ++;
     71                  if (temp >10)
     72                    break;
     73              }*/
     74              AT91C_BASE_TC2->TC_RA = AT91C_BASE_TC2->TC_CV + servo_widths[ servo_num ];
   \   00000034   2D68               LDR         R5,[R5, #+0]
   \   00000036   8600               LSL         R6,R0,#+2
   \   00000038   0D4F               LDR         R7,??timer2_c_irq_handler_1+0x10  ;; servo_widths
   \   0000003A   BE59               LDR         R6,[R7, R6]
   \   0000003C   AD19               ADD         R5,R5,R6
   \   0000003E   0D60               STR         R5,[R1, #+0]
     75              servo_num++;
   \   00000040   401C               ADD         R0,R0,#+1
     76              if(servo_num >= 10)
   \   00000042   0006               LSL         R0,R0,#+24
   \   00000044   000E               LSR         R0,R0,#+24
   \   00000046   0A28               CMP         R0,#+10
   \   00000048   04D3               BCC         ??timer2_c_irq_handler_5
     77              {  
     78                servo_num=servo_num%10;
   \   0000004A   0A21               MOV         R1,#+10
   \   0000004C   ........           _BLF        ??div32_t,??rT??div32_t
     79                cd_update = false;
   \   00000050   0021               MOV         R1,#+0
   \   00000052   5170               STRB        R1,[R2, #+1]
     80              }
     81              CDCLKRESET; 
   \                     ??timer2_c_irq_handler_5:
   \   00000054   2360               STR         R3,[R4, #+0]
   \                     ??timer2_c_irq_handler_3:
   \   00000056   1070               STRB        R0,[R2, #+0]
     82            //AT91F_TC_InterruptDisable(AT91C_BASE_TC0,AT91C_TC_LDRAS); 
     83            } 
     84          }
   \   00000058   F0BC               POP         {R4-R7}
   \   0000005A   01BC               POP         {R0}
   \   0000005C   0047               BX          R0                 ;; return
   \   0000005E   C046               NOP         
   \                     ??timer2_c_irq_handler_1:
   \   00000060   A000FAFF           DC32        0xfffa00a0
   \   00000064   ........           DC32        servo_num
   \   00000068   9000FAFF           DC32        0xfffa0090
   \   0000006C   30F4FFFF           DC32        0xfffff430
   \   00000070   ........           DC32        servo_widths
     85          
     86          /*************************************************************************************/
     87           //T1 is 30HZ
     88           //T2 is used to produce PWM (  
     89          /*************************************************************************************/

   \                                 In segment CODE, align 4, keep-with-next
     90          void timer_init(void)
     91          {
   \                     ??timer_init:
   \   00000000   F0B5               PUSH        {R4-R7,LR}
     92             // AT91F_PIO_CfgPeriph(AT91C_BASE_PIOB,(unsigned int)AT91C_PB0_TIOA0,0);
     93           //AT91F_TC0_CfgPIO();
     94            AT91F_TC0_CfgPMC();
   \   00000002   2148               LDR         R0,??timer_init_1  ;; 0xfffffc10
   \   00000004   8021               MOV         R1,#+128
   \   00000006   4901               LSL         R1,R1,#+5          ;; #+4096
   \   00000008   0160               STR         R1,[R0, #+0]
     95            AT91F_TC1_CfgPMC();
   \   0000000A   4F00               LSL         R7,R1,#+1
   \   0000000C   0760               STR         R7,[R0, #+0]
     96            AT91F_TC2_CfgPMC();
   \   0000000E   8C00               LSL         R4,R1,#+2
   \   00000010   0460               STR         R4,[R0, #+0]
     97            
     98           // AT91C_BASE_TC0 ->TC_CMR= AT91C_TC_CLKS_TIMER_DIV2_CLOCK|AT91C_TC_LDRA_RISING
     99                             //       |AT91C_TC_ABETRG|AT91C_TC_LDBDIS|AT91C_TC_ETRGEDG_FALLING ;
    100            AT91C_BASE_TC2 ->TC_CMR=AT91C_TC_CLKS_TIMER_DIV3_CLOCK|AT91C_TC_WAVE;
   \   00000012   1E48               LDR         R0,??timer_init_1+0x4  ;; 0x8002
   \   00000014   1E49               LDR         R1,??timer_init_1+0x8  ;; 0xfffa0084
   \   00000016   0860               STR         R0,[R1, #+0]
    101            AT91C_BASE_TC1 ->TC_CMR=AT91C_TC_CLKS_TIMER_DIV3_CLOCK|AT91C_TC_WAVE;
   \   00000018   1E49               LDR         R1,??timer_init_1+0xC  ;; 0xfffa0044
   \   0000001A   0860               STR         R0,[R1, #+0]
    102            AT91C_BASE_TC0 ->TC_CMR=AT91C_TC_CLKS_TIMER_DIV2_CLOCK|AT91C_TC_WAVE;
   \   0000001C   1E48               LDR         R0,??timer_init_1+0x10  ;; 0xfffa0004
   \   0000001E   1F49               LDR         R1,??timer_init_1+0x14  ;; 0x8001
   \   00000020   0160               STR         R1,[R0, #+0]
    103            /************************************TC0*************************************************/  
    104             AT91F_AIC_ConfigureIt ( AT91C_BASE_AIC, AT91C_ID_TC0,
    105          	                   TC0_INTERRUPT_LEVEL,
    106          	                   AT91C_AIC_SRCTYPE_INT_POSITIVE_EDGE,
    107          	                   timer0_c_irq_handler);
   \   00000022   1F4D               LDR         R5,??timer_init_1+0x18  ;; 0xfffff000
   \   00000024   1F48               LDR         R0,??timer_init_1+0x1C  ;; ??timer0_c_irq_handler
   \   00000026   01B4               PUSH        {R0}
   \   00000028   2023               MOV         R3,#+32
   \   0000002A   0422               MOV         R2,#+4
   \   0000002C   0C21               MOV         R1,#+12
   \   0000002E   281C               MOV         R0,R5
   \   00000030   ........           _BLF        ??AT91F_AIC_ConfigureIt,??AT91F_AIC_ConfigureIt??rT
    108             AT91F_AIC_EnableIt(AT91C_BASE_AIC,AT91C_ID_TC0);
   \   00000034   1C4E               LDR         R6,??timer_init_1+0x20  ;; 0xfffff120
   \   00000036   A008               LSR         R0,R4,#+2
   \   00000038   3060               STR         R0,[R6, #+0]
    109            // AT91C_BASE_TC0->TC_RC = 0xffff;
    110             
    111            // AT91F_TC_InterruptEnable(AT91C_BASE_TC0,AT91C_TC_CPAS);
    112            /************************************TC1 30HZ*************************************************/
    113            
    114            AT91F_AIC_ConfigureIt ( AT91C_BASE_AIC, AT91C_ID_TC1,
    115          	                   TC1_INTERRUPT_LEVEL,
    116          	                   AT91C_AIC_SRCTYPE_INT_POSITIVE_EDGE,
    117          	                   timer1_c_irq_handler);
   \   0000003A   1C48               LDR         R0,??timer_init_1+0x24  ;; ??timer1_c_irq_handler
   \   0000003C   01B4               PUSH        {R0}
   \   0000003E   2023               MOV         R3,#+32
   \   00000040   0322               MOV         R2,#+3
   \   00000042   0D21               MOV         R1,#+13
   \   00000044   281C               MOV         R0,R5
   \   00000046   ........           _BLF        ??AT91F_AIC_ConfigureIt,??AT91F_AIC_ConfigureIt??rT
    118             AT91F_AIC_EnableIt(AT91C_BASE_AIC,AT91C_ID_TC1);
   \   0000004A   3760               STR         R7,[R6, #+0]
    119             
    120             AT91F_TC_InterruptEnable(AT91C_BASE_TC1,AT91C_TC_CPAS);
   \   0000004C   0427               MOV         R7,#+4
   \   0000004E   1848               LDR         R0,??timer_init_1+0x28  ;; 0xfffa0064
   \   00000050   0760               STR         R7,[R0, #+0]
    121             
    122           /*************************************************************************************/
    123              AT91F_AIC_ConfigureIt ( AT91C_BASE_AIC, AT91C_ID_TC2,
    124          	                   TC2_INTERRUPT_LEVEL,
    125          	                   AT91C_AIC_SRCTYPE_INT_POSITIVE_EDGE,
    126          	                   timer2_c_irq_handler);
   \   00000052   1848               LDR         R0,??timer_init_1+0x2C  ;; ??timer2_c_irq_handler
   \   00000054   01B4               PUSH        {R0}
   \   00000056   2023               MOV         R3,#+32
   \   00000058   0722               MOV         R2,#+7
   \   0000005A   0E21               MOV         R1,#+14
   \   0000005C   281C               MOV         R0,R5
   \   0000005E   ........           _BLF        ??AT91F_AIC_ConfigureIt,??AT91F_AIC_ConfigureIt??rT
    127             AT91F_AIC_EnableIt(AT91C_BASE_AIC,AT91C_ID_TC2);
   \   00000062   3460               STR         R4,[R6, #+0]
    128             
    129             AT91F_TC_InterruptEnable(AT91C_BASE_TC2,AT91C_TC_CPAS);
   \   00000064   1448               LDR         R0,??timer_init_1+0x30  ;; 0xfffa00a4
   \   00000066   0760               STR         R7,[R0, #+0]
    130             CDREST;/*ืขาโฃบหสวCD4017ตฤRESETะลบลฃฌหสนCD4017ดำ'0'ฟชสผฒ๚ษ๚PWMะลบลกฃหตฤฮปึรำะดฟผมฟ*/
   \   00000068   ....               LDR         R0,??DataTable2    ;; 0xfffff434
   \   0000006A   0121               MOV         R1,#+1
   \   0000006C   0160               STR         R1,[R0, #+0]
    131             AT91C_BASE_TC2 ->TC_RA = 20;
   \   0000006E   ....               LDR         R0,??DataTable3    ;; 0xfffa0094
   \   00000070   1421               MOV         R1,#+20
   \   00000072   0160               STR         R1,[R0, #+0]
    132             
    133           //  AT91C_BASE_TC2 ->TC_RA = servo_widths[0];
    134            AT91C_BASE_TC0 -> TC_CCR = AT91C_TC_CLKEN |AT91C_TC_SWTRG ; 
   \   00000074   0520               MOV         R0,#+5
   \   00000076   1149               LDR         R1,??timer_init_1+0x34  ;; 0xfffa0000
   \   00000078   0860               STR         R0,[R1, #+0]
    135            AT91C_BASE_TC1 -> TC_CCR = AT91C_TC_CLKEN |AT91C_TC_SWTRG ;
   \   0000007A   1149               LDR         R1,??timer_init_1+0x38  ;; 0xfffa0040
   \   0000007C   0860               STR         R0,[R1, #+0]
    136            AT91C_BASE_TC2 -> TC_CCR = AT91C_TC_CLKEN |AT91C_TC_SWTRG ;
   \   0000007E   1149               LDR         R1,??timer_init_1+0x3C  ;; 0xfffa0080
   \   00000080   0860               STR         R0,[R1, #+0]
    137          }
   \   00000082   FEBC               POP         {R1-R7}
   \   00000084   01BC               POP         {R0}
   \   00000086   0047               BX          R0                 ;; return
   \                     ??timer_init_1:
   \   00000088   10FCFFFF           DC32        0xfffffc10
   \   0000008C   02800000           DC32        0x8002
   \   00000090   8400FAFF           DC32        0xfffa0084
   \   00000094   4400FAFF           DC32        0xfffa0044
   \   00000098   0400FAFF           DC32        0xfffa0004
   \   0000009C   01800000           DC32        0x8001
   \   000000A0   00F0FFFF           DC32        0xfffff000
   \   000000A4   ........           DC32        ??timer0_c_irq_handler
   \   000000A8   20F1FFFF           DC32        0xfffff120
   \   000000AC   ........           DC32        ??timer1_c_irq_handler
   \   000000B0   6400FAFF           DC32        0xfffa0064
   \   000000B4   ........           DC32        ??timer2_c_irq_handler
   \   000000B8   A400FAFF           DC32        0xfffa00a4
   \   000000BC   0000FAFF           DC32        0xfffa0000
   \   000000C0   4000FAFF           DC32        0xfffa0040
   \   000000C4   8000FAFF           DC32        0xfffa0080

   \                                 In segment CODE, align 4, keep-with-next
   \                     ??DataTable2:
   \   00000000   34F4FFFF           DC32        0xfffff434

   \                                 In segment CODE, align 4, keep-with-next
   \                     ??DataTable3:
   \   00000000   9400FAFF           DC32        0xfffa0094

   \                                 In segment DATA_ID, align 1, align-sorted
   \                     `?<Initializer for servo_num>`:
   \   00000000   00                 DC8 0
   \                     `?<Initializer for cd_update>`:
   \   00000001   01                 DC8 1
    138          
    139          

   Maximum stack usage in bytes:

     Function                       CSTACK
     --------                       ------
     AT91F_AIC_ConfigureIt(AT91PS_AIC, unsigned int, unsigned int, unsigned int, void (*)())
                                       20
     timer1_c_irq_handler()             0
     timer2_c_irq_handler()            20
     timer_init()                      32


   Segment part sizes:

     Function/Label                 Bytes
     --------------                 -----
     AT91F_AIC_ConfigureIt(AT91PS_AIC, unsigned int, unsigned int, unsigned int, void (*)())
                                      44
     READY_30HZ                        1
     DMP_GPS                           1
     servo_num                         2
     timer1_c_irq_handler()           44
     timer2_c_irq_handler()          116
     timer_init()                    200
     ??DataTable2                      4
     ??DataTable3                      4
     ?<Initializer for servo_num>      2
      Others                          80

 
 468 bytes in segment CODE
   2 bytes in segment DATA_I
   2 bytes in segment DATA_ID
   2 bytes in segment DATA_Z
  24 bytes in segment INITTAB
 
 368 bytes of CODE  memory (+ 124 bytes shared)
   2 bytes of CONST memory
   4 bytes of DATA  memory

Errors: none
Warnings: none
